; Function Attrs: nounwind uwtable
define range(i32 -12, 1) i32 @ff_append_outpad_free_name(ptr noundef captures(none) %0, ptr noundef %1) local_unnamed_addr #0 {
  %3 = getelementptr inbounds nuw i8, ptr %1, i64 12
  %4 = load i32, ptr %3, align 4, !tbaa !14
  %5 = or i32 %4, 2
  store i32 %5, ptr %3, align 4, !tbaa !14
  %6 = getelementptr inbounds nuw i8, ptr %0, i64 64
  %7 = getelementptr inbounds nuw i8, ptr %0, i64 48
  %8 = getelementptr inbounds nuw i8, ptr %0, i64 56
  %9 = load i32, ptr %6, align 4, !tbaa !4
  %10 = load ptr, ptr %7, align 8, !tbaa !8
  %11 = add i32 %9, 1
  %12 = zext i32 %11 to i64
  %13 = tail call ptr @av_realloc_array(ptr noundef %10, i64 noundef %12, i64 noundef 48) #15
  %14 = load ptr, ptr %8, align 8, !tbaa !11
  %15 = tail call ptr @av_realloc_array(ptr noundef %14, i64 noundef %12, i64 noundef 8) #15
  %.not26.i.i = icmp eq ptr %13, null
  br i1 %.not26.i.i, label %16, label %.thread27.i.i

16:                                               ; preds = %2
  %.not25.i.i = icmp eq ptr %15, null
  br i1 %.not25.i.i, label %.thread.i.i, label %17

.thread27.i.i:                                    ; preds = %2
  store ptr %13, ptr %7, align 8, !tbaa !8
  %.not2528.i.i = icmp eq ptr %15, null
  br i1 %.not2528.i.i, label %.thread.i.i, label %21

17:                                               ; preds = %16
  store ptr %15, ptr %8, align 8, !tbaa !11
  br label %.thread.i.i

.thread.i.i:                                      ; preds = %17, %.thread27.i.i, %16
  %18 = load i32, ptr %3, align 4, !tbaa !14
  %19 = and i32 %18, 2
  %.not.i.i = icmp eq i32 %19, 0
  br i1 %.not.i.i, label %ff_append_outpad.exit, label %20

20:                                               ; preds = %.thread.i.i
  tail call void @av_freep(ptr noundef nonnull %1) #15
  br label %ff_append_outpad.exit

21:                                               ; preds = %.thread27.i.i
  store ptr %15, ptr %8, align 8, !tbaa !11
  %22 = zext i32 %9 to i64
  %23 = getelementptr inbounds nuw %struct.AVFilterPad, ptr %13, i64 %22
  tail call void @llvm.memcpy.p0.p0.i64(ptr noundef nonnull align 8 dereferenceable(48) %23, ptr noundef nonnull align 8 dereferenceable(48) %1, i64 48, i1 false)
  %24 = load ptr, ptr %8, align 8, !tbaa !11
  %25 = getelementptr inbounds nuw ptr, ptr %24, i64 %22
  store ptr null, ptr %25, align 8, !tbaa !17
  %26 = load i32, ptr %6, align 4, !tbaa !4
  %27 = add i32 %26, 1
  store i32 %27, ptr %6, align 4, !tbaa !4
  br label %ff_append_outpad.exit

ff_append_outpad.exit:                            ; preds = %.thread.i.i, %20, %21
  %.0.i.i = phi i32 [ 0, %21 ], [ -12, %20 ], [ -12, %.thread.i.i ]
  ret i32 %.0.i.i
}